; ModuleID = '14/799.c'
source_filename = "14/799.c"
target datalayout = "e-m:e-p270:32:32-p271:32:32-p272:64:64-i64:64-f80:128-n8:16:32:64-S128"
target triple = "x86_64-pc-linux-gnu"

%struct.student = type { i32, i32, i32, i32, %struct.student* }

@.str = private unnamed_addr constant [3 x i8] c"%d\00", align 1
@.str.1 = private unnamed_addr constant [9 x i8] c"%d %d %d\00", align 1
@.str.2 = private unnamed_addr constant [7 x i8] c"%d %d\0A\00", align 1

; Function Attrs: noinline nounwind uwtable
define dso_local void @main() #0 {
  %1 = alloca i32, align 4
  %2 = alloca i32, align 4
  %3 = alloca i32, align 4
  %4 = alloca %struct.student*, align 8
  %5 = alloca %struct.student*, align 8
  %6 = alloca %struct.student*, align 8
  store i32 0, i32* %3, align 4
  %7 = call i32 (i8*, ...) @__isoc99_scanf(i8* getelementptr inbounds ([3 x i8], [3 x i8]* @.str, i64 0, i64 0), i32* %1)
  %8 = call noalias i8* @malloc(i64 100) #3
  %9 = bitcast i8* %8 to %struct.student*
  store %struct.student* %9, %struct.student** %6, align 8
  store %struct.student* %9, %struct.student** %5, align 8
  %10 = load %struct.student*, %struct.student** %5, align 8
  %11 = getelementptr inbounds %struct.student, %struct.student* %10, i32 0, i32 0
  %12 = load %struct.student*, %struct.student** %5, align 8
  %13 = getelementptr inbounds %struct.student, %struct.student* %12, i32 0, i32 1
  %14 = load %struct.student*, %struct.student** %5, align 8
  %15 = getelementptr inbounds %struct.student, %struct.student* %14, i32 0, i32 2
  %16 = call i32 (i8*, ...) @__isoc99_scanf(i8* getelementptr inbounds ([9 x i8], [9 x i8]* @.str.1, i64 0, i64 0), i32* %11, i32* %13, i32* %15)
  %17 = load %struct.student*, %struct.student** %5, align 8
  %18 = getelementptr inbounds %struct.student, %struct.student* %17, i32 0, i32 1
  %19 = load i32, i32* %18, align 4
  %20 = load %struct.student*, %struct.student** %5, align 8
  %21 = getelementptr inbounds %struct.student, %struct.student* %20, i32 0, i32 2
  %22 = load i32, i32* %21, align 8
  %23 = add nsw i32 %19, %22
  %24 = load %struct.student*, %struct.student** %5, align 8
  %25 = getelementptr inbounds %struct.student, %struct.student* %24, i32 0, i32 3
  store i32 %23, i32* %25, align 4
  store %struct.student* null, %struct.student** %4, align 8
  br label %26

26:                                               ; preds = %43, %0
  %27 = load %struct.student*, %struct.student** %5, align 8
  %28 = getelementptr inbounds %struct.student, %struct.student* %27, i32 0, i32 0
  %29 = load i32, i32* %28, align 8
  %30 = load i32, i32* %1, align 4
  %31 = icmp ne i32 %29, %30
  br i1 %31, label %32, label %63

32:                                               ; preds = %26
  %33 = load i32, i32* %3, align 4
  %34 = add nsw i32 %33, 1
  store i32 %34, i32* %3, align 4
  %35 = load i32, i32* %3, align 4
  %36 = icmp eq i32 %35, 1
  br i1 %36, label %37, label %39

37:                                               ; preds = %32
  %38 = load %struct.student*, %struct.student** %5, align 8
  store %struct.student* %38, %struct.student** %4, align 8
  br label %43

39:                                               ; preds = %32
  %40 = load %struct.student*, %struct.student** %5, align 8
  %41 = load %struct.student*, %struct.student** %6, align 8
  %42 = getelementptr inbounds %struct.student, %struct.student* %41, i32 0, i32 4
  store %struct.student* %40, %struct.student** %42, align 8
  br label %43

43:                                               ; preds = %39, %37
  %44 = load %struct.student*, %struct.student** %5, align 8
  store %struct.student* %44, %struct.student** %6, align 8
  %45 = call noalias i8* @malloc(i64 100) #3
  %46 = bitcast i8* %45 to %struct.student*
  store %struct.student* %46, %struct.student** %5, align 8
  %47 = load %struct.student*, %struct.student** %5, align 8
  %48 = getelementptr inbounds %struct.student, %struct.student* %47, i32 0, i32 0
  %49 = load %struct.student*, %struct.student** %5, align 8
  %50 = getelementptr inbounds %struct.student, %struct.student* %49, i32 0, i32 1
  %51 = load %struct.student*, %struct.student** %5, align 8
  %52 = getelementptr inbounds %struct.student, %struct.student* %51, i32 0, i32 2
  %53 = call i32 (i8*, ...) @__isoc99_scanf(i8* getelementptr inbounds ([9 x i8], [9 x i8]* @.str.1, i64 0, i64 0), i32* %48, i32* %50, i32* %52)
  %54 = load %struct.student*, %struct.student** %5, align 8
  %55 = getelementptr inbounds %struct.student, %struct.student* %54, i32 0, i32 1
  %56 = load i32, i32* %55, align 4
  %57 = load %struct.student*, %struct.student** %5, align 8
  %58 = getelementptr inbounds %struct.student, %struct.student* %57, i32 0, i32 2
  %59 = load i32, i32* %58, align 8
  %60 = add nsw i32 %56, %59
  %61 = load %struct.student*, %struct.student** %5, align 8
  %62 = getelementptr inbounds %struct.student, %struct.student* %61, i32 0, i32 3
  store i32 %60, i32* %62, align 4
  br label %26

63:                                               ; preds = %26
  %64 = load %struct.student*, %struct.student** %6, align 8
  %65 = getelementptr inbounds %struct.student, %struct.student* %64, i32 0, i32 4
  store %struct.student* null, %struct.student** %65, align 8
  store i32 0, i32* %2, align 4
  br label %66

66:                                               ; preds = %100, %63
  %67 = load i32, i32* %2, align 4
  %68 = icmp slt i32 %67, 3
  br i1 %68, label %69, label %103

69:                                               ; preds = %66
  %70 = load %struct.student*, %struct.student** %4, align 8
  store %struct.student* %70, %struct.student** %6, align 8
  store %struct.student* %70, %struct.student** %5, align 8
  br label %71

71:                                               ; preds = %85, %69
  %72 = load %struct.student*, %struct.student** %6, align 8
  %73 = getelementptr inbounds %struct.student, %struct.student* %72, i32 0, i32 4
  %74 = load %struct.student*, %struct.student** %73, align 8
  store %struct.student* %74, %struct.student** %6, align 8
  %75 = load %struct.student*, %struct.student** %5, align 8
  %76 = getelementptr inbounds %struct.student, %struct.student* %75, i32 0, i32 3
  %77 = load i32, i32* %76, align 4
  %78 = load %struct.student*, %struct.student** %6, align 8
  %79 = getelementptr inbounds %struct.student, %struct.student* %78, i32 0, i32 3
  %80 = load i32, i32* %79, align 4
  %81 = icmp slt i32 %77, %80
  br i1 %81, label %82, label %84

82:                                               ; preds = %71
  %83 = load %struct.student*, %struct.student** %6, align 8
  store %struct.student* %83, %struct.student** %5, align 8
  br label %84

84:                                               ; preds = %82, %71
  br label %85

85:                                               ; preds = %84
  %86 = load %struct.student*, %struct.student** %6, align 8
  %87 = getelementptr inbounds %struct.student, %struct.student* %86, i32 0, i32 4
  %88 = load %struct.student*, %struct.student** %87, align 8
  %89 = icmp ne %struct.student* %88, null
  br i1 %89, label %71, label %90

90:                                               ; preds = %85
  %91 = load %struct.student*, %struct.student** %5, align 8
  %92 = getelementptr inbounds %struct.student, %struct.student* %91, i32 0, i32 0
  %93 = load i32, i32* %92, align 8
  %94 = load %struct.student*, %struct.student** %5, align 8
  %95 = getelementptr inbounds %struct.student, %struct.student* %94, i32 0, i32 3
  %96 = load i32, i32* %95, align 4
  %97 = call i32 (i8*, ...) @printf(i8* getelementptr inbounds ([7 x i8], [7 x i8]* @.str.2, i64 0, i64 0), i32 %93, i32 %96)
  %98 = load %struct.student*, %struct.student** %5, align 8
  %99 = getelementptr inbounds %struct.student, %struct.student* %98, i32 0, i32 3
  store i32 -1, i32* %99, align 4
  br label %100

100:                                              ; preds = %90
  %101 = load i32, i32* %2, align 4
  %102 = add nsw i32 %101, 1
  store i32 %102, i32* %2, align 4
  br label %66

103:                                              ; preds = %66
  ret void
}

declare dso_local i32 @__isoc99_scanf(i8*, ...) #1

; Function Attrs: nounwind
declare dso_local noalias i8* @malloc(i64) #2

declare dso_local i32 @printf(i8*, ...) #1


!llvm.module.flags = !{!0}
!llvm.ident = !{!1}

!0 = !{i32 1, !"wchar_size", i32 4}
!1 = !{!"clang version 10.0.0-4ubuntu1 "}
